; Function Attrs: mustprogress nofree norecurse nosync nounwind willreturn memory(read, argmem: readwrite, inaccessiblemem: none) uwtable
define dso_local void @_ZNK15cmStateSnapshot23GetBuildsystemDirectoryEv(ptr dead_on_unwind noalias writable writeonly sret(%class.cmStateSnapshot) align 8 captures(none) initializes((0, 24)) %0, ptr noundef nonnull readonly align 8 captures(none) dereferenceable(24) %1) local_unnamed_addr #7 align 2 {
  %3 = load ptr, ptr %1, align 8
  %4 = getelementptr inbounds nuw i8, ptr %1, i64 8
  %5 = load ptr, ptr %4, align 8
  %6 = getelementptr inbounds nuw i8, ptr %1, i64 16
  %7 = load i64, ptr %6, align 8
  %8 = load ptr, ptr %5, align 8
  %9 = getelementptr %"struct.cmStateDetail::SnapshotDataType", ptr %8, i64 %7
  %10 = getelementptr i8, ptr %9, i64 -104
  %11 = load ptr, ptr %10, align 8
  %12 = getelementptr i8, ptr %9, i64 -96
  %13 = load i64, ptr %12, align 8
  %14 = load ptr, ptr %11, align 8
  %15 = getelementptr %"struct.cmStateDetail::BuildsystemDirectoryStateType", ptr %14, i64 %13
  %16 = getelementptr i8, ptr %15, i64 -360
  %.sroa.0.0.copyload = load ptr, ptr %16, align 8
  %.sroa.2.0..sroa_idx = getelementptr i8, ptr %15, i64 -352
  %.sroa.2.0.copyload = load i64, ptr %.sroa.2.0..sroa_idx, align 8
  store ptr %3, ptr %0, align 8
  %17 = getelementptr inbounds nuw i8, ptr %0, i64 8
  store ptr %.sroa.0.0.copyload, ptr %17, align 8
  %.sroa.2.0..sroa_idx.i = getelementptr inbounds nuw i8, ptr %0, i64 16
  store i64 %.sroa.2.0.copyload, ptr %.sroa.2.0..sroa_idx.i, align 8
  ret void
}